Certificate:
    Data:
        Version: 3 (0x2)
        Serial Number: 1 (0x1)
        Signature Algorithm: sha256WithRSAEncryption
        Issuer: C=NO, ST=Norway, L=Yiffingtown, O=Yiffers~, O=Faggots of tomorrow, OU=Queer Coded
        Validity
            Not Before: May 20 17:40:06 2025 GMT
            Not After : May 20 17:40:06 2026 GMT
        Subject: C=NO, ST=Norway, L=Sandnes, O=Gand VGS, O=iktService.local, OU=2-IT, CN=HelpDesk
        Subject Public Key Info:
            Public Key Algorithm: rsaEncryption
                Public-Key: (2048 bit)
                Modulus:
                    00:9b:c6:86:a6:76:4b:e2:12:e0:8b:68:9e:ab:42:
                    3f:37:7d:a3:13:ff:aa:d5:7a:2f:10:be:8a:3b:42:
                    74:31:f7:2d:5a:cc:a8:36:38:7d:9f:f6:e0:f7:89:
                    fd:24:7c:46:77:6e:ff:8a:e6:63:33:83:d5:5d:6a:
                    34:a1:cc:9f:f6:5c:9c:7f:28:c9:d5:f4:65:08:65:
                    3c:28:52:ef:42:e4:5b:e0:31:5e:0a:98:ea:3c:bc:
                    7d:5b:aa:5c:0f:6f:75:18:15:af:37:9d:a6:65:7e:
                    3c:79:e6:ba:aa:c7:62:1c:c2:45:f3:2a:82:c1:93:
                    d9:c3:55:6b:6c:3c:ec:7d:7f:df:a3:71:60:93:ba:
                    ec:f8:ff:23:de:c7:6a:7b:31:22:b5:de:ab:fb:65:
                    b0:11:61:3c:53:c2:3a:20:2d:db:ba:d2:e4:a7:36:
                    53:35:1a:1a:85:38:63:14:a8:1f:0b:7e:ed:e2:e8:
                    6e:58:65:7d:d5:c3:20:81:d9:d9:e7:88:d0:31:cf:
                    69:a2:5e:6d:e4:bd:d6:0f:48:7c:4f:e4:0b:61:fa:
                    98:a6:d4:9e:cc:8a:d9:4e:9a:1d:cb:de:01:58:08:
                    af:47:af:d7:d3:15:d8:20:63:26:34:53:8e:9d:58:
                    40:8a:b8:79:ff:32:51:c6:73:6d:11:f7:92:9c:61:
                    69:31
                Exponent: 65537 (0x10001)
        X509v3 extensions:
            X509v3 Subject Key Identifier: 
                5C:3C:C8:D7:F6:43:89:19:7B:D7:FB:5D:15:2E:E9:EF:93:5C:24:31
            X509v3 Authority Key Identifier: 
                15:7B:6C:B1:DB:EE:AA:AD:C8:0F:83:4B:CD:A2:05:63:EF:46:AD:33
            X509v3 Basic Constraints: 
                CA:FALSE
            X509v3 Key Usage: 
                Digital Signature, Key Encipherment
            X509v3 Subject Alternative Name: 
                IP Address:127.0.0.1, IP Address:0:0:0:0:0:0:0:1
            Netscape Comment: 
                OpenSSL Generated Certificate
    Signature Algorithm: sha256WithRSAEncryption
    Signature Value:
        56:70:75:a6:c0:ee:d9:37:1b:3d:ef:2a:ca:46:4b:df:09:ae:
        1a:12:b9:5c:40:9f:fb:15:70:ac:eb:83:9a:cc:b0:01:77:6c:
        96:ce:bc:e7:c2:87:49:d3:48:e1:34:8f:bf:de:fb:1e:a4:87:
        92:35:e1:85:cd:b6:86:74:28:c7:76:2b:e4:3c:11:38:1b:68:
        96:3d:48:11:38:1b:8b:0f:98:f1:af:64:47:0c:56:60:8a:53:
        f1:9f:92:1c:b8:1f:9d:f2:bd:58:23:3b:2e:dd:da:ec:96:62:
        83:73:1f:33:76:3f:77:97:51:91:2c:03:b6:9e:f2:9c:cd:00:
        ef:ad:c8:b5:f6:3d:53:3f:b5:b5:bd:be:ee:2f:e8:a6:e3:5f:
        d2:1f:23:b1:0a:ba:84:f2:78:7f:3d:3f:6a:83:03:06:4b:f3:
        6c:d6:e1:32:5d:d4:de:a3:2c:c0:9d:f0:1d:fa:59:a1:f8:dd:
        a1:fc:8b:a5:84:df:a7:23:de:8d:8f:52:20:bf:80:5b:6f:4f:
        75:51:50:15:03:9c:e1:65:7b:de:6d:fe:74:f3:14:3e:5c:e0:
        4b:fa:93:d7:23:95:c6:55:bf:35:6d:a7:a0:bb:6d:d5:c4:bd:
        4c:45:00:5a:83:0c:49:6b:be:9c:7e:36:39:7d:3a:58:d7:e7:
        fe:b9:66:3e:43:70:31:71:6e:a2:b1:c5:d5:f3:15:89:83:54:
        58:79:6c:2d:b6:cf:9d:10:f0:2a:ab:47:c0:75:f2:05:ee:3b:
        02:0c:c4:df:17:30:d9:81:7f:02:71:27:9b:7e:e7:1a:21:44:
        3c:98:06:98:bc:40:98:62:54:85:45:49:11:32:06:28:9b:d6:
        6f:99:24:bf:5a:32:f0:95:53:68:32:5f:07:6f:85:d2:72:76:
        73:a1:07:c3:c1:b6:c7:30:c8:fe:1a:40:71:47:6f:f4:17:fa:
        77:56:99:3f:a8:d3:eb:d8:cf:4e:6f:1d:18:dc:08:f4:f7:d5:
        21:f1:a5:c2:de:84:f0:f5:a0:16:d6:25:d6:d6:59:32:53:e5:
        ff:69:c6:be:0f:88:9c:f5:fa:91:73:f4:e7:e7:83:28:8c:2f:
        6d:b0:31:63:6b:76:4c:a3:f4:bf:9a:7c:48:4c:aa:d0:db:53:
        fc:60:3e:72:26:66:32:f0:20:89:7a:9e:68:02:6a:98:d2:59:
        81:39:51:44:83:0d:6e:01:1b:56:34:de:0d:ff:72:bf:c8:ca:
        8a:be:a5:67:35:f5:b6:5e:e7:1d:f1:7d:fe:56:de:c9:88:f6:
        96:34:b8:cd:e7:4b:a5:d1:e9:7d:28:f5:04:4c:0e:33:d6:7f:
        ca:53:29:79:b7:6d:01:04
-----BEGIN CERTIFICATE-----
MIIFJDCCAwygAwIBAgIBATANBgkqhkiG9w0BAQsFADB7MQswCQYDVQQGEwJOTzEP
MA0GA1UECAwGTm9yd2F5MRQwEgYDVQQHDAtZaWZmaW5ndG93bjERMA8GA1UECgwI
WWlmZmVyc34xHDAaBgNVBAoME0ZhZ2dvdHMgb2YgdG9tb3Jyb3cxFDASBgNVBAsM
C1F1ZWVyIENvZGVkMB4XDTI1MDUyMDE3NDAwNloXDTI2MDUyMDE3NDAwNlowgYAx
CzAJBgNVBAYTAk5PMQ8wDQYDVQQIDAZOb3J3YXkxEDAOBgNVBAcMB1NhbmRuZXMx
ETAPBgNVBAoMCEdhbmQgVkdTMRkwFwYDVQQKDBBpa3RTZXJ2aWNlLmxvY2FsMQ0w
CwYDVQQLDAQyLUlUMREwDwYDVQQDDAhIZWxwRGVzazCCASIwDQYJKoZIhvcNAQEB
BQADggEPADCCAQoCggEBAJvGhqZ2S+IS4ItonqtCPzd9oxP/qtV6LxC+ijtCdDH3
LVrMqDY4fZ/24PeJ/SR8Rndu/4rmYzOD1V1qNKHMn/ZcnH8oydX0ZQhlPChS70Lk
W+AxXgqY6jy8fVuqXA9vdRgVrzedpmV+PHnmuqrHYhzCRfMqgsGT2cNVa2w87H1/
36NxYJO67Pj/I97HansxIrXeq/tlsBFhPFPCOiAt27rS5Kc2UzUaGoU4YxSoHwt+
7eLoblhlfdXDIIHZ2eeI0DHPaaJebeS91g9IfE/kC2H6mKbUnsyK2U6aHcveAVgI
r0ev19MV2CBjJjRTjp1YQIq4ef8yUcZzbRH3kpxhaTECAwEAAaOBrDCBqTAdBgNV
HQ4EFgQUXDzI1/ZDiRl71/tdFS7p75NcJDEwHwYDVR0jBBgwFoAUFXtssdvuqq3I
D4NLzaIFY+9GrTMwCQYDVR0TBAIwADALBgNVHQ8EBAMCBaAwIQYDVR0RBBowGIcE
fwAAAYcQAAAAAAAAAAAAAAAAAAAAATAsBglghkgBhvhCAQ0EHxYdT3BlblNTTCBH
ZW5lcmF0ZWQgQ2VydGlmaWNhdGUwDQYJKoZIhvcNAQELBQADggIBAFZwdabA7tk3
Gz3vKspGS98JrhoSuVxAn/sVcKzrg5rMsAF3bJbOvOfCh0nTSOE0j7/e+x6kh5I1
4YXNtoZ0KMd2K+Q8ETgbaJY9SBE4G4sPmPGvZEcMVmCKU/Gfkhy4H53yvVgjOy7d
2uyWYoNzHzN2P3eXUZEsA7ae8pzNAO+tyLX2PVM/tbW9vu4v6KbjX9IfI7EKuoTy
eH89P2qDAwZL82zW4TJd1N6jLMCd8B36WaH43aH8i6WE36cj3o2PUiC/gFtvT3VR
UBUDnOFle95t/nTzFD5c4Ev6k9cjlcZVvzVtp6C7bdXEvUxFAFqDDElrvpx+Njl9
OljX5/65Zj5DcDFxbqKxxdXzFYmDVFh5bC22z50Q8CqrR8B18gXuOwIMxN8XMNmB
fwJxJ5t+5xohRDyYBpi8QJhiVIVFSREyBiib1m+ZJL9aMvCVU2gyXwdvhdJydnOh
B8PBtscwyP4aQHFHb/QX+ndWmT+o0+vYz05vHRjcCPT31SHxpcLehPD1oBbWJdbW
WTJT5f9pxr4PiJz1+pFz9OfngyiML22wMWNrdkyj9L+afEhMqtDbU/xgPnImZjLw
IIl6nmgCapjSWYE5UUSDDW4BG1Y03g3/cr/Iyoq+pWc19bZe5x3xff5W3smI9pY0
uM3nS6XR6X0o9QRMDjPWf8pTKXm3bQEE
-----END CERTIFICATE-----
