Certificate:
    Data:
        Version: 3 (0x2)
        Serial Number: 3 (0x3)
        Signature Algorithm: sha256WithRSAEncryption
        Issuer: C=NO, ST=Rogaland, L=Sandnes, O=Rogaland Fylkeskommune, O=Gand VGS, OU=2-ITB
        Validity
            Not Before: Jun  5 15:04:26 2025 GMT
            Not After : Jun  5 15:04:26 2026 GMT
        Subject: C=NO, ST=Rogaland, L=Sandnes, O=Rogaland Fylkeskommune, O=Gand VGS, OU=2-ITB, CN=helpdesk
        Subject Public Key Info:
            Public Key Algorithm: rsaEncryption
                Public-Key: (2048 bit)
                Modulus:
                    00:a2:9b:b0:6b:85:e9:22:9e:75:50:7a:a2:5a:2d:
                    28:91:d9:19:fe:0b:4a:13:df:2c:8b:35:fc:88:fb:
                    59:26:97:53:8b:cf:08:c2:0c:dd:95:55:db:e6:e3:
                    db:87:c6:b5:cd:98:c5:5b:ac:0f:fd:b0:79:98:6d:
                    7f:f6:05:27:81:54:ec:cd:ad:e1:24:46:78:c1:98:
                    29:32:a0:85:f6:87:bb:61:c8:e6:2e:ff:c2:02:63:
                    a1:11:f5:7c:d1:fb:46:53:8e:b1:41:ae:f1:28:d8:
                    c8:37:80:be:16:85:a1:bf:f3:4b:dc:ea:65:61:1b:
                    4c:a5:76:d4:c0:df:71:4a:ca:3a:87:3a:37:12:3f:
                    6b:0e:f0:4c:14:26:1e:88:2f:de:ea:10:dd:35:5d:
                    4f:f1:50:4a:0c:7f:34:78:66:1a:fe:89:a1:b1:2b:
                    b9:f2:6e:ba:b7:1e:c4:e2:94:d2:81:0b:43:99:54:
                    55:e2:8b:a6:a7:63:f4:c1:35:c1:ec:c5:92:bd:df:
                    ef:f2:b9:75:4c:70:d0:6d:6c:0a:ff:9d:e8:44:b0:
                    aa:c6:6b:d6:91:ab:ea:ae:fc:ea:df:7a:9c:a5:f2:
                    dc:93:c8:bb:87:5c:79:78:25:14:44:de:f8:41:c7:
                    c5:af:36:dc:85:8c:15:c7:63:9b:c8:b1:15:1e:22:
                    13:b9
                Exponent: 65537 (0x10001)
        X509v3 extensions:
            X509v3 Subject Key Identifier: 
                DF:5C:F2:B1:C4:68:DF:C6:7B:78:71:89:BB:43:FE:12:A1:B6:11:70
            X509v3 Authority Key Identifier: 
                AD:68:BD:D5:45:98:B6:22:E3:77:39:70:49:E2:22:AA:09:F8:DB:4B
            X509v3 Basic Constraints: 
                CA:FALSE
            X509v3 Key Usage: 
                Digital Signature, Key Encipherment
            X509v3 Subject Alternative Name: 
                DNS:helpdesk
            Netscape Comment: 
                OpenSSL Generated Certificate
    Signature Algorithm: sha256WithRSAEncryption
    Signature Value:
        8d:aa:66:68:31:12:cc:e0:aa:87:e8:74:9c:8a:02:b0:fd:59:
        ed:7f:21:60:d3:73:ba:2b:9e:84:ab:88:fa:71:33:4c:01:21:
        f5:b5:f0:c5:be:07:a7:ae:c1:38:55:12:e9:0e:db:52:64:12:
        29:e8:e1:c4:1b:6a:e0:de:27:39:3d:86:35:90:74:df:f7:cf:
        e6:eb:cb:9e:7d:df:0f:18:46:82:e8:77:c8:ed:fc:79:a6:50:
        5f:46:78:47:24:93:31:b3:a4:b2:1d:65:1f:6a:b2:5f:c2:f9:
        f1:b4:76:aa:07:d6:3a:f1:01:b6:76:a3:84:7e:f2:94:75:b4:
        a6:17:20:f3:e1:8a:de:ee:1d:5e:1a:34:05:10:66:12:38:c2:
        43:bf:c6:8b:66:5e:19:4a:4b:a7:12:dc:f1:6b:5e:e2:be:90:
        02:47:df:31:2f:15:7d:cc:bf:ec:ae:8a:79:3f:b7:0c:7d:4f:
        79:f0:07:de:11:2a:5b:98:58:38:c8:35:a2:e0:85:e9:04:47:
        f9:6f:a2:5f:8d:16:1f:0e:26:1e:5b:57:14:e1:4f:6d:43:6c:
        60:99:26:36:e7:cc:c9:5a:f0:e2:1e:c7:c3:4f:5e:b1:7d:a6:
        17:8b:67:0f:c3:78:7a:07:18:5b:eb:76:b4:ac:5f:2b:31:d8:
        20:6d:68:de:a3:8f:cc:89:7a:83:d8:f3:eb:3a:7b:58:26:82:
        5a:f3:88:e2:e2:7e:f5:07:6c:24:e5:29:2a:42:c7:bb:77:9f:
        ab:d0:89:df:88:c2:82:47:e7:ed:ab:ef:fe:7b:20:cb:fd:d6:
        5c:9b:64:ee:d5:71:d0:b2:05:a7:ad:62:13:27:ee:1c:dc:f2:
        89:cf:4d:67:85:29:c6:63:17:af:5d:48:1c:62:4e:8d:c5:b0:
        e6:aa:25:98:cc:84:87:bc:f6:57:62:56:d4:d9:d5:a7:eb:25:
        1e:64:4b:69:c9:cb:90:aa:c4:95:a1:00:be:05:b1:bb:58:a8:
        28:1c:32:83:5d:51:c6:09:8f:98:73:9d:e4:e5:10:5f:83:59:
        a5:fd:87:32:70:44:d8:4c:f2:d2:ce:50:de:6b:f7:7b:7f:6f:
        9e:da:eb:b8:ba:c2:43:a0:85:ac:40:4a:3c:1a:07:4e:06:4e:
        7a:9c:80:04:0f:4f:7c:fb:57:41:c5:2b:2d:eb:dc:01:7d:bd:
        46:66:8c:04:e2:60:00:77:26:87:1c:f9:b4:06:89:bc:63:66:
        b1:57:dc:31:80:8f:37:3f:a0:fe:c3:a1:1f:f4:ce:1f:20:4f:
        86:88:da:d4:d7:fd:8c:3c:48:4c:9c:9f:a5:67:b0:5a:37:66:
        34:8a:f1:f7:3a:76:7d:b8
-----BEGIN CERTIFICATE-----
MIIFGjCCAwKgAwIBAgIBAzANBgkqhkiG9w0BAQsFADB2MQswCQYDVQQGEwJOTzER
MA8GA1UECAwIUm9nYWxhbmQxEDAOBgNVBAcMB1NhbmRuZXMxHzAdBgNVBAoMFlJv
Z2FsYW5kIEZ5bGtlc2tvbW11bmUxETAPBgNVBAoMCEdhbmQgVkdTMQ4wDAYDVQQL
DAUyLUlUQjAeFw0yNTA2MDUxNTA0MjZaFw0yNjA2MDUxNTA0MjZaMIGJMQswCQYD
VQQGEwJOTzERMA8GA1UECAwIUm9nYWxhbmQxEDAOBgNVBAcMB1NhbmRuZXMxHzAd
BgNVBAoMFlJvZ2FsYW5kIEZ5bGtlc2tvbW11bmUxETAPBgNVBAoMCEdhbmQgVkdT
MQ4wDAYDVQQLDAUyLUlUQjERMA8GA1UEAwwIaGVscGRlc2swggEiMA0GCSqGSIb3
DQEBAQUAA4IBDwAwggEKAoIBAQCim7BrhekinnVQeqJaLSiR2Rn+C0oT3yyLNfyI
+1kml1OLzwjCDN2VVdvm49uHxrXNmMVbrA/9sHmYbX/2BSeBVOzNreEkRnjBmCky
oIX2h7thyOYu/8ICY6ER9XzR+0ZTjrFBrvEo2Mg3gL4WhaG/80vc6mVhG0yldtTA
33FKyjqHOjcSP2sO8EwUJh6IL97qEN01XU/xUEoMfzR4Zhr+iaGxK7nybrq3HsTi
lNKBC0OZVFXii6anY/TBNcHsxZK93+/yuXVMcNBtbAr/nehEsKrGa9aRq+qu/Orf
epyl8tyTyLuHXHl4JRRE3vhBx8WvNtyFjBXHY5vIsRUeIhO5AgMBAAGjgZ4wgZsw
HQYDVR0OBBYEFN9c8rHEaN/Ge3hxibtD/hKhthFwMB8GA1UdIwQYMBaAFK1ovdVF
mLYi43c5cEniIqoJ+NtLMAkGA1UdEwQCMAAwCwYDVR0PBAQDAgWgMBMGA1UdEQQM
MAqCCGhlbHBkZXNrMCwGCWCGSAGG+EIBDQQfFh1PcGVuU1NMIEdlbmVyYXRlZCBD
ZXJ0aWZpY2F0ZTANBgkqhkiG9w0BAQsFAAOCAgEAjapmaDESzOCqh+h0nIoCsP1Z
7X8hYNNzuiuehKuI+nEzTAEh9bXwxb4Hp67BOFUS6Q7bUmQSKejhxBtq4N4nOT2G
NZB03/fP5uvLnn3fDxhGguh3yO38eaZQX0Z4RySTMbOksh1lH2qyX8L58bR2qgfW
OvEBtnajhH7ylHW0phcg8+GK3u4dXho0BRBmEjjCQ7/Gi2ZeGUpLpxLc8Wte4r6Q
AkffMS8Vfcy/7K6KeT+3DH1PefAH3hEqW5hYOMg1ouCF6QRH+W+iX40WHw4mHltX
FOFPbUNsYJkmNufMyVrw4h7Hw09esX2mF4tnD8N4egcYW+t2tKxfKzHYIG1o3qOP
zIl6g9jz6zp7WCaCWvOI4uJ+9QdsJOUpKkLHu3efq9CJ34jCgkfn7avv/nsgy/3W
XJtk7tVx0LIFp61iEyfuHNzyic9NZ4UpxmMXr11IHGJOjcWw5qolmMyEh7z2V2JW
1NnVp+slHmRLacnLkKrElaEAvgWxu1ioKBwyg11RxgmPmHOd5OUQX4NZpf2HMnBE
2Ezy0s5Q3mv3e39vntrruLrCQ6CFrEBKPBoHTgZOepyABA9PfPtXQcUrLevcAX29
RmaMBOJgAHcmhxz5tAaJvGNmsVfcMYCPNz+g/sOhH/TOHyBPhoja1Nf9jDxITJyf
pWewWjdmNIrx9zp2fbg=
-----END CERTIFICATE-----
-----BEGIN ENCRYPTED PRIVATE KEY-----
MIIFJDBWBgkqhkiG9w0BBQ0wSTAxBgkqhkiG9w0BBQwwJAQQUKkIbDkzeqIPnTRD
KQbg5gICCAAwDAYIKoZIhvcNAgkFADAUBggqhkiG9w0DBwQIDTtrd1z3+9MEggTI
4Lsk4hJea/lBH1bYVtAQk2w9vhGYbRExcAurg/vSsFC7VL31V7kXVvC3pR2NfJJb
D/10jSo8mP1N9urjWLKyVpjJzN5En/ev9g82+wKGT9FlJUs910nYo9Hs72d3WRR0
3VlsaeY+LRldIRF0SdrLkfyJcamI7kReuR3tA+vPeQqENeHNQPuoPvHjF5MIzv9l
YUCfYaECIx0O4w0Gx/YGdbNo2NM8VFHchDbEnZ2en4Ry0xj3WOxpXA2KXOwNszFn
Oqhlvq0tdg+dW9ZZ0jEWlz4kCZv0E1LQfMtQKnCqP2X2cc78iihTkvkWLrN/u7sj
3/JLVq/EV8dvcqpTCQM+0vI8H2ySy+ZSdBGsm0ZR/lwUU5hUNjLgTKiBvBvn0hVj
TTwIl9L7JPZIVXKphzQv+Mkzk76wtY+9AsJ2u0wOdG1rjyLHrMJfhYZW0n7rRKIR
cOstaeV0o8XiUkInQIj2LcUADe3QZ1NUmVvQskyJ0RfDIBm4CWyurj+nAwYuVgIx
s6WxCY5nryBgjRdeBN5ltCSFTJcLCOKGCTC1YIUfiDpFcas1oM/WTR6gZjNmf0tF
kxxEvRrrmsI0/loywmCoqU6uJ+JK4/Zpdqqg6LVvHMC7rrFXtkxdVGIkeVZpUhF3
Ud6CwKlpgmyohTE1YariSOQvrqRzo+wRT3W712jFgWajBvJepmGn5AMgPSNu0TD5
399wLDxQ6W1E9YASdHBsBjFiYc02MCOn9TDEquK20oEhj4NWsBl9N5wSx870A1Ip
57fJHCm6dYxwtTa2e0/fKPsvyTFTfeHWYR6pF3pKOPXPGgMVPKY1dAYChiV1SgeH
oog0tcqFXjVgkd/u2NJJejC/aWJix8j3UoMz8YJW5zKFqYSt4FWondPetOR1ILe6
TcMWG8o+KFOEIMYoOJ0epb1qKbuYEoiqvkUkDU8IEKXyDMqLdNePHxDsDAw8LQrS
cmH+n5GLIaaIRJNa7e2uNjTX8WXBkfFG67EDFP3gaH2mvTgstg0fOg/s3kv+gO0X
viSo5Mm294IrjrrSDF0feTXmL+aHBTuY/HXx710UFvtsJ7sIl8l1uY3blRHZJDY3
po+AiwWCZLHrRZUjP8VuOM5p2rGqEhcMrihp0xUEGVwR5REP/dcH1F0qo5hakZu+
4D+ColvX9JMSKUET8240kK4pLf9PVxKppONekPs8pCLjQMVkwWduqNyLd3aH5gxf
oV45oh1+KaDgcD8ITz2JnDLu+dER8E0R6Y0m70xpONgKX7/dTOTWQkgqtFGo9OjB
dJtpou5tU9bHdcTuUlNioTu+XrOsjbB/0d0z9poS8Tbhhd3V9JsYtZp0EznMDqdQ
WGkPQt1hkvdBO1uCAFToVjMhyYQGa8Tx0ynKvo2PIaVQc/nmiSshclrflwor9ehi
D3x6jSTf/H5/inmW69qciPGnmr3F4XwOAw8i33O5O1hdr0Djj3Wv1XSb+VRbIP9w
RmpB6PVpTJ6PyOp+Wt8tNLdquXa/jI/QIlF2R7cI285bzhZ6Ix07LBrY6w7AXkru
hWfAKhE8LBXI2mZBq7E0qdVOKrXbrXJZ8gbqwqsScDtk056RHtCUJx/D0r1Mr6zF
JusZX7DZtGiEVyD8xVvcz7kYiVZc92vV
-----END ENCRYPTED PRIVATE KEY-----
