Certificate:
    Data:
        Version: 3 (0x2)
        Serial Number: 1 (0x1)
        Signature Algorithm: sha256WithRSAEncryption
        Issuer: C=NO, ST=Rogaland, L=Sandnes, O=Rogaland Fylkeskommune, O=Gand VGS, OU=2-ITB
        Validity
            Not Before: May 21 06:58:55 2025 GMT
            Not After : May 21 06:58:55 2026 GMT
        Subject: C=NO, ST=Rogaland, L=Sandnes, O=Rogaland Fylkeskommune, O=Gand VGS, OU=2-ITB, CN=HelpDeskSys
        Subject Public Key Info:
            Public Key Algorithm: rsaEncryption
                Public-Key: (2048 bit)
                Modulus:
                    00:95:07:10:0f:66:9d:ec:1b:8a:34:f5:01:eb:c5:
                    9c:7c:c4:e2:fb:85:11:20:96:c4:02:e0:96:9f:99:
                    5b:8c:bf:fb:c2:79:20:fb:a3:7f:30:46:0b:bd:0b:
                    5c:64:62:5a:77:b5:45:e9:1c:bf:84:af:18:fa:9c:
                    4b:e6:10:d3:80:22:40:fd:50:81:a5:fa:02:05:71:
                    c2:4b:c4:4c:5b:a0:bc:93:90:df:4e:81:3d:d1:1e:
                    78:a4:3c:d0:92:c1:bb:7e:18:41:6e:19:6d:9e:6b:
                    e1:f1:8c:19:9d:42:72:78:f3:f1:23:cc:4c:0b:ab:
                    b2:a1:75:b7:b4:94:85:83:b6:ef:ac:f4:e0:f4:40:
                    4c:a3:d5:58:bb:72:7b:bd:a7:3e:ee:93:93:2a:34:
                    cb:fb:3e:40:82:67:72:15:ef:37:64:77:e6:a4:16:
                    e2:bd:31:fa:5a:1a:50:1b:bb:58:fa:d7:32:80:f5:
                    b1:36:7d:45:e8:cc:56:0b:14:e9:50:99:4a:0d:f7:
                    d4:5c:56:82:a6:e4:50:51:90:6b:a8:94:fb:83:03:
                    11:24:95:5e:90:84:9e:65:b2:89:42:0d:70:b0:81:
                    ad:5a:7a:5a:21:03:33:6c:f2:aa:68:64:bd:56:31:
                    43:b6:8d:d1:b6:f4:aa:0b:0c:25:2a:34:0e:c1:74:
                    ed:e1
                Exponent: 65537 (0x10001)
        X509v3 extensions:
            X509v3 Subject Key Identifier: 
                4A:87:90:57:44:94:60:42:A4:7A:AC:9A:C1:42:36:31:C8:31:16:7A
            X509v3 Authority Key Identifier: 
                F5:06:4E:5C:18:F9:78:3E:0A:C2:54:8A:FE:F3:9B:05:D2:2A:00:9F
            X509v3 Basic Constraints: 
                CA:FALSE
            X509v3 Key Usage: 
                Digital Signature, Key Encipherment
            X509v3 Subject Alternative Name: 
                DNS:local.helpdesk.qb.net
            Netscape Comment: 
                OpenSSL Generated Certificate
    Signature Algorithm: sha256WithRSAEncryption
    Signature Value:
        6e:20:99:e0:a0:2a:bd:38:1e:19:e7:3e:65:76:59:68:b7:9a:
        66:23:d2:ea:e9:ab:9d:e7:da:93:51:1b:6a:b4:7d:ac:d3:58:
        d4:cf:fd:1b:21:d5:64:46:1f:de:44:8f:dd:40:55:92:0f:79:
        62:eb:39:d9:27:47:74:9a:35:8b:ce:6c:91:f5:f1:34:97:ac:
        37:d4:1b:32:b5:de:f0:3d:e6:74:41:6f:56:87:03:a9:f1:0d:
        83:3e:50:95:ca:0e:f6:45:93:d7:bb:14:7b:db:d9:07:7e:11:
        a5:c6:e4:d9:fc:98:f2:de:ab:03:e4:b8:d4:bd:5a:17:4d:c6:
        67:1e:22:24:89:0e:f3:1c:33:9c:5d:ab:62:02:cf:e1:1a:8b:
        0f:3e:e9:84:c8:21:58:ef:d7:e2:d5:84:ac:7c:5d:38:76:3f:
        c2:e3:8d:62:e2:44:bd:fd:d3:09:30:0e:72:da:0c:48:86:93:
        82:d0:be:7d:0e:d7:ae:e6:70:97:13:bf:81:b4:de:f2:57:69:
        44:8b:4d:16:20:f2:2f:f0:16:72:f1:9b:67:cb:bb:82:39:8a:
        6c:ea:85:50:c9:75:6c:a7:b2:72:ec:80:aa:aa:ae:19:73:0f:
        e2:7f:35:73:5a:c5:ab:b0:e2:4d:0d:5e:da:35:34:dd:4c:c0:
        62:17:80:53:ed:3f:27:30:03:ae:a5:2d:a5:84:06:d7:33:7d:
        aa:0f:72:5e:a3:7d:8c:19:7c:c8:10:7f:b1:42:57:ef:ea:84:
        fb:c9:4c:ff:06:da:39:be:ed:14:93:51:56:49:21:35:46:43:
        fe:0b:3c:4e:02:80:7d:9b:01:60:6e:a8:6c:10:56:aa:b3:12:
        b8:82:78:6b:10:0b:b8:70:5e:70:39:d5:cc:31:7e:8e:27:82:
        e6:21:61:2d:26:4b:1a:b6:93:2c:2f:ae:fb:21:85:4b:5a:60:
        ec:b7:38:75:4e:da:df:e3:1a:39:ba:98:4c:7a:e4:34:b8:8b:
        e7:57:22:86:3c:99:17:e6:39:fb:ce:68:a5:3a:b8:7f:53:c8:
        02:71:7a:30:cb:c8:8d:25:fe:01:f2:84:9e:1a:c3:d7:9b:cc:
        e9:10:2b:26:a1:81:7d:40:3f:c2:0c:70:28:17:9f:b7:d5:1f:
        58:bb:f9:b7:ac:78:37:f3:3b:e1:a8:d9:a6:f6:de:35:22:85:
        6e:7f:1b:97:7a:bf:c9:ad:42:40:dc:77:ea:6d:bd:61:51:d9:
        a8:15:72:f2:fc:a3:66:96:32:ba:9e:cd:41:a3:3a:f7:92:8c:
        80:48:6f:c4:5b:3a:d9:49:fc:7c:25:8b:c9:ad:7d:1d:40:47:
        ff:ea:66:97:47:12:87:2d
-----BEGIN CERTIFICATE-----
MIIFKjCCAxKgAwIBAgIBATANBgkqhkiG9w0BAQsFADB2MQswCQYDVQQGEwJOTzER
MA8GA1UECAwIUm9nYWxhbmQxEDAOBgNVBAcMB1NhbmRuZXMxHzAdBgNVBAoMFlJv
Z2FsYW5kIEZ5bGtlc2tvbW11bmUxETAPBgNVBAoMCEdhbmQgVkdTMQ4wDAYDVQQL
DAUyLUlUQjAeFw0yNTA1MjEwNjU4NTVaFw0yNjA1MjEwNjU4NTVaMIGMMQswCQYD
VQQGEwJOTzERMA8GA1UECAwIUm9nYWxhbmQxEDAOBgNVBAcMB1NhbmRuZXMxHzAd
BgNVBAoMFlJvZ2FsYW5kIEZ5bGtlc2tvbW11bmUxETAPBgNVBAoMCEdhbmQgVkdT
MQ4wDAYDVQQLDAUyLUlUQjEUMBIGA1UEAwwLSGVscERlc2tTeXMwggEiMA0GCSqG
SIb3DQEBAQUAA4IBDwAwggEKAoIBAQCVBxAPZp3sG4o09QHrxZx8xOL7hREglsQC
4JafmVuMv/vCeSD7o38wRgu9C1xkYlp3tUXpHL+Erxj6nEvmENOAIkD9UIGl+gIF
ccJLxExboLyTkN9OgT3RHnikPNCSwbt+GEFuGW2ea+HxjBmdQnJ48/EjzEwLq7Kh
dbe0lIWDtu+s9OD0QEyj1Vi7cnu9pz7uk5MqNMv7PkCCZ3IV7zdkd+akFuK9Mfpa
GlAbu1j61zKA9bE2fUXozFYLFOlQmUoN99RcVoKm5FBRkGuolPuDAxEklV6QhJ5l
solCDXCwga1aelohAzNs8qpoZL1WMUO2jdG29KoLDCUqNA7BdO3hAgMBAAGjgasw
gagwHQYDVR0OBBYEFEqHkFdElGBCpHqsmsFCNjHIMRZ6MB8GA1UdIwQYMBaAFPUG
TlwY+Xg+CsJUiv7zmwXSKgCfMAkGA1UdEwQCMAAwCwYDVR0PBAQDAgWgMCAGA1Ud
EQQZMBeCFWxvY2FsLmhlbHBkZXNrLnFiLm5ldDAsBglghkgBhvhCAQ0EHxYdT3Bl
blNTTCBHZW5lcmF0ZWQgQ2VydGlmaWNhdGUwDQYJKoZIhvcNAQELBQADggIBAG4g
meCgKr04HhnnPmV2WWi3mmYj0urpq53n2pNRG2q0fazTWNTP/Rsh1WRGH95Ej91A
VZIPeWLrOdknR3SaNYvObJH18TSXrDfUGzK13vA95nRBb1aHA6nxDYM+UJXKDvZF
k9e7FHvb2Qd+EaXG5Nn8mPLeqwPkuNS9WhdNxmceIiSJDvMcM5xdq2ICz+Eaiw8+
6YTIIVjv1+LVhKx8XTh2P8LjjWLiRL390wkwDnLaDEiGk4LQvn0O167mcJcTv4G0
3vJXaUSLTRYg8i/wFnLxm2fLu4I5imzqhVDJdWynsnLsgKqqrhlzD+J/NXNaxauw
4k0NXto1NN1MwGIXgFPtPycwA66lLaWEBtczfaoPcl6jfYwZfMgQf7FCV+/qhPvJ
TP8G2jm+7RSTUVZJITVGQ/4LPE4CgH2bAWBuqGwQVqqzEriCeGsQC7hwXnA51cwx
fo4nguYhYS0mSxq2kywvrvshhUtaYOy3OHVO2t/jGjm6mEx65DS4i+dXIoY8mRfm
OfvOaKU6uH9TyAJxejDLyI0l/gHyhJ4aw9ebzOkQKyahgX1AP8IMcCgXn7fVH1i7
+beseDfzO+Go2ab23jUihW5/G5d6v8mtQkDcd+ptvWFR2agVcvL8o2aWMrqezUGj
OveSjIBIb8RbOtlJ/Hwli8mtfR1AR//qZpdHEoct
-----END CERTIFICATE-----
Certificate:
    Data:
        Version: 3 (0x2)
        Serial Number: 1 (0x1)
        Signature Algorithm: sha256WithRSAEncryption
        Issuer: C=NO, ST=Rogaland, L=Sandnes, O=Rogaland Fylkeskommune, O=Gand VGS, OU=2-ITB
        Validity
            Not Before: May 21 06:58:55 2025 GMT
            Not After : May 21 06:58:55 2026 GMT
        Subject: C=NO, ST=Rogaland, L=Sandnes, O=Rogaland Fylkeskommune, O=Gand VGS, OU=2-ITB, CN=HelpDeskSys
        Subject Public Key Info:
            Public Key Algorithm: rsaEncryption
                Public-Key: (2048 bit)
                Modulus:
                    00:95:07:10:0f:66:9d:ec:1b:8a:34:f5:01:eb:c5:
                    9c:7c:c4:e2:fb:85:11:20:96:c4:02:e0:96:9f:99:
                    5b:8c:bf:fb:c2:79:20:fb:a3:7f:30:46:0b:bd:0b:
                    5c:64:62:5a:77:b5:45:e9:1c:bf:84:af:18:fa:9c:
                    4b:e6:10:d3:80:22:40:fd:50:81:a5:fa:02:05:71:
                    c2:4b:c4:4c:5b:a0:bc:93:90:df:4e:81:3d:d1:1e:
                    78:a4:3c:d0:92:c1:bb:7e:18:41:6e:19:6d:9e:6b:
                    e1:f1:8c:19:9d:42:72:78:f3:f1:23:cc:4c:0b:ab:
                    b2:a1:75:b7:b4:94:85:83:b6:ef:ac:f4:e0:f4:40:
                    4c:a3:d5:58:bb:72:7b:bd:a7:3e:ee:93:93:2a:34:
                    cb:fb:3e:40:82:67:72:15:ef:37:64:77:e6:a4:16:
                    e2:bd:31:fa:5a:1a:50:1b:bb:58:fa:d7:32:80:f5:
                    b1:36:7d:45:e8:cc:56:0b:14:e9:50:99:4a:0d:f7:
                    d4:5c:56:82:a6:e4:50:51:90:6b:a8:94:fb:83:03:
                    11:24:95:5e:90:84:9e:65:b2:89:42:0d:70:b0:81:
                    ad:5a:7a:5a:21:03:33:6c:f2:aa:68:64:bd:56:31:
                    43:b6:8d:d1:b6:f4:aa:0b:0c:25:2a:34:0e:c1:74:
                    ed:e1
                Exponent: 65537 (0x10001)
        X509v3 extensions:
            X509v3 Subject Key Identifier: 
                4A:87:90:57:44:94:60:42:A4:7A:AC:9A:C1:42:36:31:C8:31:16:7A
            X509v3 Authority Key Identifier: 
                F5:06:4E:5C:18:F9:78:3E:0A:C2:54:8A:FE:F3:9B:05:D2:2A:00:9F
            X509v3 Basic Constraints: 
                CA:FALSE
            X509v3 Key Usage: 
                Digital Signature, Key Encipherment
            X509v3 Subject Alternative Name: 
                DNS:local.helpdesk.qb.net
            Netscape Comment: 
                OpenSSL Generated Certificate
    Signature Algorithm: sha256WithRSAEncryption
    Signature Value:
        6e:20:99:e0:a0:2a:bd:38:1e:19:e7:3e:65:76:59:68:b7:9a:
        66:23:d2:ea:e9:ab:9d:e7:da:93:51:1b:6a:b4:7d:ac:d3:58:
        d4:cf:fd:1b:21:d5:64:46:1f:de:44:8f:dd:40:55:92:0f:79:
        62:eb:39:d9:27:47:74:9a:35:8b:ce:6c:91:f5:f1:34:97:ac:
        37:d4:1b:32:b5:de:f0:3d:e6:74:41:6f:56:87:03:a9:f1:0d:
        83:3e:50:95:ca:0e:f6:45:93:d7:bb:14:7b:db:d9:07:7e:11:
        a5:c6:e4:d9:fc:98:f2:de:ab:03:e4:b8:d4:bd:5a:17:4d:c6:
        67:1e:22:24:89:0e:f3:1c:33:9c:5d:ab:62:02:cf:e1:1a:8b:
        0f:3e:e9:84:c8:21:58:ef:d7:e2:d5:84:ac:7c:5d:38:76:3f:
        c2:e3:8d:62:e2:44:bd:fd:d3:09:30:0e:72:da:0c:48:86:93:
        82:d0:be:7d:0e:d7:ae:e6:70:97:13:bf:81:b4:de:f2:57:69:
        44:8b:4d:16:20:f2:2f:f0:16:72:f1:9b:67:cb:bb:82:39:8a:
        6c:ea:85:50:c9:75:6c:a7:b2:72:ec:80:aa:aa:ae:19:73:0f:
        e2:7f:35:73:5a:c5:ab:b0:e2:4d:0d:5e:da:35:34:dd:4c:c0:
        62:17:80:53:ed:3f:27:30:03:ae:a5:2d:a5:84:06:d7:33:7d:
        aa:0f:72:5e:a3:7d:8c:19:7c:c8:10:7f:b1:42:57:ef:ea:84:
        fb:c9:4c:ff:06:da:39:be:ed:14:93:51:56:49:21:35:46:43:
        fe:0b:3c:4e:02:80:7d:9b:01:60:6e:a8:6c:10:56:aa:b3:12:
        b8:82:78:6b:10:0b:b8:70:5e:70:39:d5:cc:31:7e:8e:27:82:
        e6:21:61:2d:26:4b:1a:b6:93:2c:2f:ae:fb:21:85:4b:5a:60:
        ec:b7:38:75:4e:da:df:e3:1a:39:ba:98:4c:7a:e4:34:b8:8b:
        e7:57:22:86:3c:99:17:e6:39:fb:ce:68:a5:3a:b8:7f:53:c8:
        02:71:7a:30:cb:c8:8d:25:fe:01:f2:84:9e:1a:c3:d7:9b:cc:
        e9:10:2b:26:a1:81:7d:40:3f:c2:0c:70:28:17:9f:b7:d5:1f:
        58:bb:f9:b7:ac:78:37:f3:3b:e1:a8:d9:a6:f6:de:35:22:85:
        6e:7f:1b:97:7a:bf:c9:ad:42:40:dc:77:ea:6d:bd:61:51:d9:
        a8:15:72:f2:fc:a3:66:96:32:ba:9e:cd:41:a3:3a:f7:92:8c:
        80:48:6f:c4:5b:3a:d9:49:fc:7c:25:8b:c9:ad:7d:1d:40:47:
        ff:ea:66:97:47:12:87:2d
-----BEGIN CERTIFICATE-----
MIIFKjCCAxKgAwIBAgIBATANBgkqhkiG9w0BAQsFADB2MQswCQYDVQQGEwJOTzER
MA8GA1UECAwIUm9nYWxhbmQxEDAOBgNVBAcMB1NhbmRuZXMxHzAdBgNVBAoMFlJv
Z2FsYW5kIEZ5bGtlc2tvbW11bmUxETAPBgNVBAoMCEdhbmQgVkdTMQ4wDAYDVQQL
DAUyLUlUQjAeFw0yNTA1MjEwNjU4NTVaFw0yNjA1MjEwNjU4NTVaMIGMMQswCQYD
VQQGEwJOTzERMA8GA1UECAwIUm9nYWxhbmQxEDAOBgNVBAcMB1NhbmRuZXMxHzAd
BgNVBAoMFlJvZ2FsYW5kIEZ5bGtlc2tvbW11bmUxETAPBgNVBAoMCEdhbmQgVkdT
MQ4wDAYDVQQLDAUyLUlUQjEUMBIGA1UEAwwLSGVscERlc2tTeXMwggEiMA0GCSqG
SIb3DQEBAQUAA4IBDwAwggEKAoIBAQCVBxAPZp3sG4o09QHrxZx8xOL7hREglsQC
4JafmVuMv/vCeSD7o38wRgu9C1xkYlp3tUXpHL+Erxj6nEvmENOAIkD9UIGl+gIF
ccJLxExboLyTkN9OgT3RHnikPNCSwbt+GEFuGW2ea+HxjBmdQnJ48/EjzEwLq7Kh
dbe0lIWDtu+s9OD0QEyj1Vi7cnu9pz7uk5MqNMv7PkCCZ3IV7zdkd+akFuK9Mfpa
GlAbu1j61zKA9bE2fUXozFYLFOlQmUoN99RcVoKm5FBRkGuolPuDAxEklV6QhJ5l
solCDXCwga1aelohAzNs8qpoZL1WMUO2jdG29KoLDCUqNA7BdO3hAgMBAAGjgasw
gagwHQYDVR0OBBYEFEqHkFdElGBCpHqsmsFCNjHIMRZ6MB8GA1UdIwQYMBaAFPUG
TlwY+Xg+CsJUiv7zmwXSKgCfMAkGA1UdEwQCMAAwCwYDVR0PBAQDAgWgMCAGA1Ud
EQQZMBeCFWxvY2FsLmhlbHBkZXNrLnFiLm5ldDAsBglghkgBhvhCAQ0EHxYdT3Bl
blNTTCBHZW5lcmF0ZWQgQ2VydGlmaWNhdGUwDQYJKoZIhvcNAQELBQADggIBAG4g
meCgKr04HhnnPmV2WWi3mmYj0urpq53n2pNRG2q0fazTWNTP/Rsh1WRGH95Ej91A
VZIPeWLrOdknR3SaNYvObJH18TSXrDfUGzK13vA95nRBb1aHA6nxDYM+UJXKDvZF
k9e7FHvb2Qd+EaXG5Nn8mPLeqwPkuNS9WhdNxmceIiSJDvMcM5xdq2ICz+Eaiw8+
6YTIIVjv1+LVhKx8XTh2P8LjjWLiRL390wkwDnLaDEiGk4LQvn0O167mcJcTv4G0
3vJXaUSLTRYg8i/wFnLxm2fLu4I5imzqhVDJdWynsnLsgKqqrhlzD+J/NXNaxauw
4k0NXto1NN1MwGIXgFPtPycwA66lLaWEBtczfaoPcl6jfYwZfMgQf7FCV+/qhPvJ
TP8G2jm+7RSTUVZJITVGQ/4LPE4CgH2bAWBuqGwQVqqzEriCeGsQC7hwXnA51cwx
fo4nguYhYS0mSxq2kywvrvshhUtaYOy3OHVO2t/jGjm6mEx65DS4i+dXIoY8mRfm
OfvOaKU6uH9TyAJxejDLyI0l/gHyhJ4aw9ebzOkQKyahgX1AP8IMcCgXn7fVH1i7
+beseDfzO+Go2ab23jUihW5/G5d6v8mtQkDcd+ptvWFR2agVcvL8o2aWMrqezUGj
OveSjIBIb8RbOtlJ/Hwli8mtfR1AR//qZpdHEoct
-----END CERTIFICATE-----
